; Function Attrs: nounwind uwtable
define range(i32 0, 3) i32 @tng_first_signature_set(ptr noundef captures(none) %0, ptr noundef readonly captures(none) %1) local_unnamed_addr #4 {
  %3 = tail call i64 @strlen(ptr noundef nonnull dereferenceable(1) %1) #27
  %4 = add i64 %3, 1
  %5 = tail call noundef range(i64 0, 1025) i64 @llvm.umin.i64(i64 %4, i64 1024)
  %6 = getelementptr inbounds nuw i8, ptr %0, i64 112
  %7 = load ptr, ptr %6, align 8, !tbaa !147
  %.not = icmp eq ptr %7, null
  br i1 %.not, label %.thread, label %8

8:                                                ; preds = %2
  %9 = tail call i64 @strlen(ptr noundef nonnull dereferenceable(1) %7) #27
  %10 = icmp ult i64 %9, %5
  br i1 %10, label %11, label %16

11:                                               ; preds = %8
  tail call void @free(ptr noundef nonnull %7) #26
  br label %.thread

.thread:                                          ; preds = %2, %11
  %12 = tail call noalias ptr @malloc(i64 noundef %5) #28
  store ptr %12, ptr %6, align 8, !tbaa !147
  %.not15 = icmp eq ptr %12, null
  br i1 %.not15, label %13, label %16

13:                                               ; preds = %.thread
  %14 = load ptr, ptr @stderr, align 8, !tbaa !14
  %15 = tail call i32 (ptr, ptr, ...) @fprintf(ptr noundef %14, ptr noundef nonnull @.str, ptr noundef nonnull @.str.1, i32 noundef 9456) #29
  br label %19

16:                                               ; preds = %8, %.thread
  %17 = phi ptr [ %12, %.thread ], [ %7, %8 ]
  %18 = tail call ptr @strncpy(ptr noundef nonnull %17, ptr noundef nonnull %1, i64 noundef %5) #26
  br label %19

19:                                               ; preds = %16, %13
  %.0 = phi i32 [ 0, %16 ], [ 2, %13 ]
  ret i32 %.0
}